target datalayout = "e-m:e-p270:32:32-p271:32:32-p272:64:64-i64:64-i128:128-f80:128-n8:16:32:64-S128"
target triple = "x86_64-pc-linux-gnu"

%struct.ossl_cmp_ctx_st = type { ptr, ptr, ptr, i32, ptr, ptr, ptr, ptr, ptr, i32, ptr, ptr, i32, i32, i32, i32, i64, ptr, ptr, i32, i32, ptr, ptr, ptr, ptr, ptr, i32, i32, i32, ptr, ptr, ptr, ptr, ptr, i64, ptr, i32, i32, ptr, ptr, ptr, ptr, ptr, ptr, ptr, ptr, i32, i32, ptr, ptr, i32, ptr, ptr, i32, ptr, ptr, i32, i32, ptr, ptr, i32, i32, ptr, ptr, i32, ptr, i32, ptr, i32, ptr, ptr, ptr, ptr, ptr, ptr }
%struct.ossl_cmp_certresponse_st = type { ptr, ptr, ptr, ptr }
%struct.ossl_cmp_certifiedkeypair_st = type { ptr, ptr, ptr }
%struct.ossl_cmp_certorenccert_st = type { i32, %union.anon.0 }
%union.anon.0 = type { ptr }

@.str = private unnamed_addr constant [32 x i8] c"../openssl/crypto/cmp/cmp_msg.c\00", align 1
@__func__.ossl_cmp_certresponse_get1_cert = private unnamed_addr constant [32 x i8] c"ossl_cmp_certresponse_get1_cert\00", align 1

; Function Attrs: nounwind uwtable
define ptr @ossl_cmp_certresponse_get1_cert(ptr noundef %0, ptr noundef %1) #0 {
  %3 = alloca ptr, align 8
  %4 = alloca ptr, align 8
  %5 = alloca ptr, align 8
  %6 = alloca ptr, align 8
  %7 = alloca ptr, align 8
  %8 = alloca ptr, align 8
  %9 = alloca ptr, align 8
  %10 = alloca i32, align 4
  %11 = alloca i32, align 4
  store ptr %0, ptr %4, align 8, !tbaa !34
  store ptr %1, ptr %5, align 8, !tbaa !87
  call void @llvm.lifetime.start.p0(i64 8, ptr %6) #6
  call void @llvm.lifetime.start.p0(i64 8, ptr %7) #6
  store ptr null, ptr %7, align 8, !tbaa !56
  call void @llvm.lifetime.start.p0(i64 8, ptr %8) #6
  call void @llvm.lifetime.start.p0(i64 8, ptr %9) #6
  store ptr null, ptr %9, align 8, !tbaa !57
  call void @llvm.lifetime.start.p0(i64 4, ptr %10) #6
  %12 = load ptr, ptr %4, align 8, !tbaa !34
  %13 = call i32 @OSSL_CMP_CTX_get_option(ptr noundef %12, i32 noundef 24)
  %14 = icmp eq i32 %13, -1
  %15 = zext i1 %14 to i32
  store i32 %15, ptr %10, align 4, !tbaa !20
  %16 = load ptr, ptr %5, align 8, !tbaa !87
  %17 = getelementptr inbounds nuw %struct.ossl_cmp_certresponse_st, ptr %16, i32 0, i32 2
  %18 = load ptr, ptr %17, align 8, !tbaa !93
  %19 = icmp eq ptr %18, null
  br i1 %19, label %20, label %21

20:                                               ; preds = %2
  call void @ERR_new()
  call void @ERR_set_debug(ptr noundef @.str, i32 noundef 1119, ptr noundef @__func__.ossl_cmp_certresponse_get1_cert)
  call void (i32, i32, ptr, ...) @ERR_set_error(i32 noundef 58, i32 noundef 112, ptr noundef null)
  store ptr null, ptr %3, align 8
  store i32 1, ptr %11, align 4
  br label %139

21:                                               ; preds = %2
  %22 = load ptr, ptr %5, align 8, !tbaa !87
  %23 = getelementptr inbounds nuw %struct.ossl_cmp_certresponse_st, ptr %22, i32 0, i32 2
  %24 = load ptr, ptr %23, align 8, !tbaa !93
  %25 = getelementptr inbounds nuw %struct.ossl_cmp_certifiedkeypair_st, ptr %24, i32 0, i32 1
  %26 = load ptr, ptr %25, align 8, !tbaa !101
  store ptr %26, ptr %8, align 8, !tbaa !106
  %27 = load ptr, ptr %8, align 8, !tbaa !106
  %28 = icmp eq ptr %27, null
  br i1 %28, label %29, label %33

29:                                               ; preds = %21
  %30 = load i32, ptr %10, align 4, !tbaa !20
  %31 = icmp ne i32 %30, 0
  br i1 %31, label %32, label %33

32:                                               ; preds = %29
  call void @ERR_new()
  call void @ERR_set_debug(ptr noundef @.str, i32 noundef 1124, ptr noundef @__func__.ossl_cmp_certresponse_get1_cert)
  call void (i32, i32, ptr, ...) @ERR_set_error(i32 noundef 58, i32 noundef 204, ptr noundef null)
  store ptr null, ptr %3, align 8
  store i32 1, ptr %11, align 4
  br label %139

33:                                               ; preds = %29, %21
  %34 = load ptr, ptr %8, align 8, !tbaa !106
  %35 = icmp ne ptr %34, null
  br i1 %35, label %36, label %71

36:                                               ; preds = %33
  %37 = load i32, ptr %10, align 4, !tbaa !20
  %38 = icmp ne i32 %37, 0
  br i1 %38, label %40, label %39

39:                                               ; preds = %36
  call void @ERR_new()
  call void @ERR_set_debug(ptr noundef @.str, i32 noundef 1129, ptr noundef @__func__.ossl_cmp_certresponse_get1_cert)
  call void (i32, i32, ptr, ...) @ERR_set_error(i32 noundef 58, i32 noundef 205, ptr noundef null)
  store ptr null, ptr %3, align 8
  store i32 1, ptr %11, align 4
  br label %139

40:                                               ; preds = %36
  %41 = load ptr, ptr %8, align 8, !tbaa !106
  %42 = load ptr, ptr %4, align 8, !tbaa !34
  %43 = getelementptr inbounds nuw %struct.ossl_cmp_ctx_st, ptr %42, i32 0, i32 24
  %44 = load ptr, ptr %43, align 8, !tbaa !173
  %45 = load ptr, ptr %4, align 8, !tbaa !34
  %46 = getelementptr inbounds nuw %struct.ossl_cmp_ctx_st, ptr %45, i32 0, i32 25
  %47 = load ptr, ptr %46, align 8, !tbaa !174
  %48 = load ptr, ptr %4, align 8, !tbaa !34
  %49 = getelementptr inbounds nuw %struct.ossl_cmp_ctx_st, ptr %48, i32 0, i32 31
  %50 = load ptr, ptr %49, align 8, !tbaa !115
  %51 = load ptr, ptr %4, align 8, !tbaa !34
  %52 = getelementptr inbounds nuw %struct.ossl_cmp_ctx_st, ptr %51, i32 0, i32 29
  %53 = load ptr, ptr %52, align 8, !tbaa !55
  %54 = load ptr, ptr %4, align 8, !tbaa !34
  %55 = getelementptr inbounds nuw %struct.ossl_cmp_ctx_st, ptr %54, i32 0, i32 33
  %56 = load ptr, ptr %55, align 8, !tbaa !175
  %57 = load ptr, ptr %4, align 8, !tbaa !34
  %58 = getelementptr inbounds nuw %struct.ossl_cmp_ctx_st, ptr %57, i32 0, i32 0
  %59 = load ptr, ptr %58, align 8, !tbaa !36
  %60 = load ptr, ptr %4, align 8, !tbaa !34
  %61 = getelementptr inbounds nuw %struct.ossl_cmp_ctx_st, ptr %60, i32 0, i32 1
  %62 = load ptr, ptr %61, align 8, !tbaa !51
  %63 = call ptr @OSSL_CRMF_ENCRYPTEDKEY_get1_pkey(ptr noundef %41, ptr noundef %44, ptr noundef %47, ptr noundef %50, ptr noundef %53, ptr noundef %56, ptr noundef %59, ptr noundef %62)
  store ptr %63, ptr %9, align 8, !tbaa !57
  %64 = load ptr, ptr %9, align 8, !tbaa !57
  %65 = icmp eq ptr %64, null
  br i1 %65, label %66, label %67

66:                                               ; preds = %40
  call void @ERR_new()
  call void @ERR_set_debug(ptr noundef @.str, i32 noundef 1139, ptr noundef @__func__.ossl_cmp_certresponse_get1_cert)
  call void (i32, i32, ptr, ...) @ERR_set_error(i32 noundef 58, i32 noundef 203, ptr noundef null)
  store ptr null, ptr %3, align 8
  store i32 1, ptr %11, align 4
  br label %139

67:                                               ; preds = %40
  %68 = load ptr, ptr %4, align 8, !tbaa !34
  %69 = load ptr, ptr %9, align 8, !tbaa !57
  %70 = call i32 @OSSL_CMP_CTX_set0_newPkey(ptr noundef %68, i32 noundef 1, ptr noundef %69)
  br label %71

71:                                               ; preds = %67, %33
  %72 = load ptr, ptr %5, align 8, !tbaa !87
  %73 = icmp ne ptr %72, null
  br i1 %73, label %74, label %77

74:                                               ; preds = %71
  %75 = load ptr, ptr %4, align 8, !tbaa !34
  %76 = icmp ne ptr %75, null
  br label %77

77:                                               ; preds = %74, %71
  %78 = phi i1 [ false, %71 ], [ %76, %74 ]
  %79 = zext i1 %78 to i32
  %80 = icmp ne i32 %79, 0
  %81 = xor i1 %80, true
  %82 = xor i1 %81, true
  %83 = zext i1 %82 to i32
  %84 = sext i32 %83 to i64
  %85 = call i64 @llvm.expect.i64(i64 %84, i64 1)
  %86 = icmp ne i64 %85, 0
  br i1 %86, label %88, label %87

87:                                               ; preds = %77
  store ptr null, ptr %3, align 8
  store i32 1, ptr %11, align 4
  br label %139

88:                                               ; preds = %77
  %89 = load ptr, ptr %5, align 8, !tbaa !87
  %90 = getelementptr inbounds nuw %struct.ossl_cmp_certresponse_st, ptr %89, i32 0, i32 2
  %91 = load ptr, ptr %90, align 8, !tbaa !93
  %92 = getelementptr inbounds nuw %struct.ossl_cmp_certifiedkeypair_st, ptr %91, i32 0, i32 0
  %93 = load ptr, ptr %92, align 8, !tbaa !94
  store ptr %93, ptr %6, align 8, !tbaa !176
  %94 = icmp ne ptr %93, null
  br i1 %94, label %95, label %124

95:                                               ; preds = %88
  %96 = load ptr, ptr %6, align 8, !tbaa !176
  %97 = getelementptr inbounds nuw %struct.ossl_cmp_certorenccert_st, ptr %96, i32 0, i32 0
  %98 = load i32, ptr %97, align 8, !tbaa !99
  switch i32 %98, label %122 [
    i32 0, label %99
    i32 1, label %104
  ]

99:                                               ; preds = %95
  %100 = load ptr, ptr %6, align 8, !tbaa !176
  %101 = getelementptr inbounds nuw %struct.ossl_cmp_certorenccert_st, ptr %100, i32 0, i32 1
  %102 = load ptr, ptr %101, align 8, !tbaa !25
  %103 = call ptr @X509_dup(ptr noundef %102)
  store ptr %103, ptr %7, align 8, !tbaa !56
  br label %123

104:                                              ; preds = %95
  %105 = load ptr, ptr %4, align 8, !tbaa !34
  %106 = call ptr @OSSL_CMP_CTX_get0_newPkey(ptr noundef %105, i32 noundef 1)
  store ptr %106, ptr %9, align 8, !tbaa !57
  %107 = load ptr, ptr %9, align 8, !tbaa !57
  %108 = icmp eq ptr %107, null
  br i1 %108, label %109, label %110

109:                                              ; preds = %104
  call void @ERR_new()
  call void @ERR_set_debug(ptr noundef @.str, i32 noundef 1158, ptr noundef @__func__.ossl_cmp_certresponse_get1_cert)
  call void (i32, i32, ptr, ...) @ERR_set_error(i32 noundef 58, i32 noundef 131, ptr noundef null)
  store ptr null, ptr %3, align 8
  store i32 1, ptr %11, align 4
  br label %139

110:                                              ; preds = %104
  %111 = load ptr, ptr %6, align 8, !tbaa !176
  %112 = getelementptr inbounds nuw %struct.ossl_cmp_certorenccert_st, ptr %111, i32 0, i32 1
  %113 = load ptr, ptr %112, align 8, !tbaa !25
  %114 = load ptr, ptr %4, align 8, !tbaa !34
  %115 = getelementptr inbounds nuw %struct.ossl_cmp_ctx_st, ptr %114, i32 0, i32 0
  %116 = load ptr, ptr %115, align 8, !tbaa !36
  %117 = load ptr, ptr %4, align 8, !tbaa !34
  %118 = getelementptr inbounds nuw %struct.ossl_cmp_ctx_st, ptr %117, i32 0, i32 1
  %119 = load ptr, ptr %118, align 8, !tbaa !51
  %120 = load ptr, ptr %9, align 8, !tbaa !57
  %121 = call ptr @OSSL_CRMF_ENCRYPTEDKEY_get1_encCert(ptr noundef %113, ptr noundef %116, ptr noundef %119, ptr noundef %120, i32 noundef 0)
  store ptr %121, ptr %7, align 8, !tbaa !56
  br label %123

122:                                              ; preds = %95
  call void @ERR_new()
  call void @ERR_set_debug(ptr noundef @.str, i32 noundef 1165, ptr noundef @__func__.ossl_cmp_certresponse_get1_cert)
  call void (i32, i32, ptr, ...) @ERR_set_error(i32 noundef 58, i32 noundef 135, ptr noundef null)
  store ptr null, ptr %3, align 8
  store i32 1, ptr %11, align 4
  br label %139

123:                                              ; preds = %110, %99
  br label %124

124:                                              ; preds = %123, %88
  %125 = load ptr, ptr %7, align 8, !tbaa !56
  %126 = icmp eq ptr %125, null
  br i1 %126, label %127, label %128

127:                                              ; preds = %124
  call void @ERR_new()
  call void @ERR_set_debug(ptr noundef @.str, i32 noundef 1170, ptr noundef @__func__.ossl_cmp_certresponse_get1_cert)
  call void (i32, i32, ptr, ...) @ERR_set_error(i32 noundef 58, i32 noundef 112, ptr noundef null)
  br label %137

128:                                              ; preds = %124
  %129 = load ptr, ptr %7, align 8, !tbaa !56
  %130 = load ptr, ptr %4, align 8, !tbaa !34
  %131 = getelementptr inbounds nuw %struct.ossl_cmp_ctx_st, ptr %130, i32 0, i32 0
  %132 = load ptr, ptr %131, align 8, !tbaa !36
  %133 = load ptr, ptr %4, align 8, !tbaa !34
  %134 = getelementptr inbounds nuw %struct.ossl_cmp_ctx_st, ptr %133, i32 0, i32 1
  %135 = load ptr, ptr %134, align 8, !tbaa !51
  %136 = call i32 @ossl_x509_set0_libctx(ptr noundef %129, ptr noundef %132, ptr noundef %135)
  br label %137

137:                                              ; preds = %128, %127
  %138 = load ptr, ptr %7, align 8, !tbaa !56
  store ptr %138, ptr %3, align 8
  store i32 1, ptr %11, align 4
  br label %139

139:                                              ; preds = %137, %122, %109, %87, %66, %39, %32, %20
  call void @llvm.lifetime.end.p0(i64 4, ptr %10) #6
  call void @llvm.lifetime.end.p0(i64 8, ptr %9) #6
  call void @llvm.lifetime.end.p0(i64 8, ptr %8) #6
  call void @llvm.lifetime.end.p0(i64 8, ptr %7) #6
  call void @llvm.lifetime.end.p0(i64 8, ptr %6) #6
  %140 = load ptr, ptr %3, align 8
  ret ptr %140
}