; Function Attrs: nounwind uwtable
define ptr @ossl_cmp_certresponse_get1_cert(ptr noundef %0, ptr noundef readonly captures(none) %1) local_unnamed_addr #0 {
  %3 = tail call i32 @OSSL_CMP_CTX_get_option(ptr noundef %0, i32 noundef 24) #7
  %4 = icmp eq i32 %3, -1
  %5 = getelementptr inbounds nuw i8, ptr %1, i64 16
  %6 = load ptr, ptr %5, align 8, !tbaa !62
  %7 = icmp eq ptr %6, null
  br i1 %7, label %8, label %9

8:                                                ; preds = %2
  tail call void @ERR_new() #7
  tail call void @ERR_set_debug(ptr noundef nonnull @.str, i32 noundef 1119, ptr noundef nonnull @__func__.ossl_cmp_certresponse_get1_cert) #7
  tail call void (i32, i32, ptr, ...) @ERR_set_error(i32 noundef 58, i32 noundef 112, ptr noundef null) #7
  br label %64

9:                                                ; preds = %2
  %10 = getelementptr inbounds nuw i8, ptr %6, i64 8
  %11 = load ptr, ptr %10, align 8, !tbaa !70
  %12 = icmp eq ptr %11, null
  %or.cond = select i1 %12, i1 %4, i1 false
  br i1 %or.cond, label %13, label %14

13:                                               ; preds = %9
  tail call void @ERR_new() #7
  tail call void @ERR_set_debug(ptr noundef nonnull @.str, i32 noundef 1124, ptr noundef nonnull @__func__.ossl_cmp_certresponse_get1_cert) #7
  tail call void (i32, i32, ptr, ...) @ERR_set_error(i32 noundef 58, i32 noundef 204, ptr noundef null) #7
  br label %64

14:                                               ; preds = %9
  br i1 %12, label %35, label %15

15:                                               ; preds = %14
  br i1 %4, label %17, label %16

16:                                               ; preds = %15
  tail call void @ERR_new() #7
  tail call void @ERR_set_debug(ptr noundef nonnull @.str, i32 noundef 1129, ptr noundef nonnull @__func__.ossl_cmp_certresponse_get1_cert) #7
  tail call void (i32, i32, ptr, ...) @ERR_set_error(i32 noundef 58, i32 noundef 205, ptr noundef null) #7
  br label %64

17:                                               ; preds = %15
  %18 = getelementptr inbounds nuw i8, ptr %0, i64 168
  %19 = load ptr, ptr %18, align 8, !tbaa !113
  %20 = getelementptr inbounds nuw i8, ptr %0, i64 176
  %21 = load ptr, ptr %20, align 8, !tbaa !114
  %22 = getelementptr inbounds nuw i8, ptr %0, i64 216
  %23 = load ptr, ptr %22, align 8, !tbaa !77
  %24 = getelementptr inbounds nuw i8, ptr %0, i64 200
  %25 = load ptr, ptr %24, align 8, !tbaa !42
  %26 = getelementptr inbounds nuw i8, ptr %0, i64 232
  %27 = load ptr, ptr %26, align 8, !tbaa !115
  %28 = load ptr, ptr %0, align 8, !tbaa !23
  %29 = getelementptr inbounds nuw i8, ptr %0, i64 8
  %30 = load ptr, ptr %29, align 8, !tbaa !38
  %31 = tail call ptr @OSSL_CRMF_ENCRYPTEDKEY_get1_pkey(ptr noundef nonnull %11, ptr noundef %19, ptr noundef %21, ptr noundef %23, ptr noundef %25, ptr noundef %27, ptr noundef %28, ptr noundef %30) #7
  %32 = icmp eq ptr %31, null
  br i1 %32, label %33, label %.thread45

33:                                               ; preds = %17
  tail call void @ERR_new() #7
  tail call void @ERR_set_debug(ptr noundef nonnull @.str, i32 noundef 1139, ptr noundef nonnull @__func__.ossl_cmp_certresponse_get1_cert) #7
  tail call void (i32, i32, ptr, ...) @ERR_set_error(i32 noundef 58, i32 noundef 203, ptr noundef null) #7
  br label %64

.thread45:                                        ; preds = %17
  %34 = tail call i32 @OSSL_CMP_CTX_set0_newPkey(ptr noundef nonnull %0, i32 noundef 1, ptr noundef nonnull %31) #7
  br label %36

35:                                               ; preds = %14
  %.not = icmp eq ptr %0, null
  br i1 %.not, label %64, label %36, !prof !116

36:                                               ; preds = %.thread45, %35
  %37 = load ptr, ptr %5, align 8, !tbaa !62
  %38 = load ptr, ptr %37, align 8, !tbaa !63
  %.not42 = icmp eq ptr %38, null
  br i1 %.not42, label %.thread, label %39

39:                                               ; preds = %36
  %40 = load i32, ptr %38, align 8, !tbaa !68
  switch i32 %40, label %56 [
    i32 0, label %41
    i32 1, label %45
  ]

41:                                               ; preds = %39
  %42 = getelementptr inbounds nuw i8, ptr %38, i64 8
  %43 = load ptr, ptr %42, align 8, !tbaa !22
  %44 = tail call ptr @X509_dup(ptr noundef %43) #7
  br label %57

45:                                               ; preds = %39
  %46 = tail call ptr @OSSL_CMP_CTX_get0_newPkey(ptr noundef nonnull %0, i32 noundef 1) #7
  %47 = icmp eq ptr %46, null
  br i1 %47, label %48, label %49

48:                                               ; preds = %45
  tail call void @ERR_new() #7
  tail call void @ERR_set_debug(ptr noundef nonnull @.str, i32 noundef 1158, ptr noundef nonnull @__func__.ossl_cmp_certresponse_get1_cert) #7
  tail call void (i32, i32, ptr, ...) @ERR_set_error(i32 noundef 58, i32 noundef 131, ptr noundef null) #7
  br label %64

49:                                               ; preds = %45
  %50 = getelementptr inbounds nuw i8, ptr %38, i64 8
  %51 = load ptr, ptr %50, align 8, !tbaa !22
  %52 = load ptr, ptr %0, align 8, !tbaa !23
  %53 = getelementptr inbounds nuw i8, ptr %0, i64 8
  %54 = load ptr, ptr %53, align 8, !tbaa !38
  %55 = tail call ptr @OSSL_CRMF_ENCRYPTEDKEY_get1_encCert(ptr noundef %51, ptr noundef %52, ptr noundef %54, ptr noundef nonnull %46, i32 noundef 0) #7
  br label %57

56:                                               ; preds = %39
  tail call void @ERR_new() #7
  tail call void @ERR_set_debug(ptr noundef nonnull @.str, i32 noundef 1165, ptr noundef nonnull @__func__.ossl_cmp_certresponse_get1_cert) #7
  tail call void (i32, i32, ptr, ...) @ERR_set_error(i32 noundef 58, i32 noundef 135, ptr noundef null) #7
  br label %64

57:                                               ; preds = %41, %49
  %.035 = phi ptr [ %55, %49 ], [ %44, %41 ]
  %58 = icmp eq ptr %.035, null
  br i1 %58, label %.thread, label %59

.thread:                                          ; preds = %36, %57
  tail call void @ERR_new() #7
  tail call void @ERR_set_debug(ptr noundef nonnull @.str, i32 noundef 1170, ptr noundef nonnull @__func__.ossl_cmp_certresponse_get1_cert) #7
  tail call void (i32, i32, ptr, ...) @ERR_set_error(i32 noundef 58, i32 noundef 112, ptr noundef null) #7
  br label %64

59:                                               ; preds = %57
  %60 = load ptr, ptr %0, align 8, !tbaa !23
  %61 = getelementptr inbounds nuw i8, ptr %0, i64 8
  %62 = load ptr, ptr %61, align 8, !tbaa !38
  %63 = tail call i32 @ossl_x509_set0_libctx(ptr noundef nonnull %.035, ptr noundef %60, ptr noundef %62) #7
  br label %64

64:                                               ; preds = %.thread, %59, %35, %56, %48, %33, %16, %13, %8
  %.0 = phi ptr [ null, %8 ], [ null, %13 ], [ null, %33 ], [ null, %56 ], [ null, %48 ], [ null, %16 ], [ null, %35 ], [ %.035, %59 ], [ null, %.thread ]
  ret ptr %.0
}